; Function Attrs: mustprogress uwtable
define internal void @_ZN4abslL9RunWorkerEiPNS_17ThreadSafeCounterEPNS_12NotificationES1_(i32 %0, ptr noundef nonnull %1, ptr noundef %2, ptr noundef %3) #4 personality ptr @__gxx_personality_v0 {
  tail call void @_ZN4absl5Mutex4LockEv(ptr noundef nonnull align 8 dereferenceable(12) %1)
  %5 = getelementptr inbounds nuw i8, ptr %1, i64 8
  %6 = load i32, ptr %5, align 8, !tbaa !53
  %7 = add nsw i32 %6, 1
  store i32 %7, ptr %5, align 8, !tbaa !53
  invoke void @_ZN4absl5Mutex6UnlockEv(ptr noundef nonnull align 8 dereferenceable(12) %1)
          to label %_ZN4absl17ThreadSafeCounter9IncrementEv.exit unwind label %8

8:                                                ; preds = %4
  %9 = landingpad { ptr, i32 }
          catch ptr null
  %10 = extractvalue { ptr, i32 } %9, 0
  tail call void @__clang_call_terminate(ptr %10) #29
  unreachable

_ZN4absl17ThreadSafeCounter9IncrementEv.exit:     ; preds = %4
  tail call void @_ZNK4absl12Notification19WaitForNotificationEv(ptr noundef nonnull align 8 dereferenceable(9) %2)
  tail call void @_ZN4absl5Mutex4LockEv(ptr noundef nonnull align 8 dereferenceable(12) %3)
  %11 = getelementptr inbounds nuw i8, ptr %3, i64 8
  %12 = load i32, ptr %11, align 8, !tbaa !53
  %13 = add nsw i32 %12, 1
  store i32 %13, ptr %11, align 8, !tbaa !53
  invoke void @_ZN4absl5Mutex6UnlockEv(ptr noundef nonnull align 8 dereferenceable(12) %3)
          to label %_ZN4absl17ThreadSafeCounter9IncrementEv.exit3 unwind label %14

14:                                               ; preds = %_ZN4absl17ThreadSafeCounter9IncrementEv.exit
  %15 = landingpad { ptr, i32 }
          catch ptr null
  %16 = extractvalue { ptr, i32 } %15, 0
  tail call void @__clang_call_terminate(ptr %16) #29
  unreachable

_ZN4absl17ThreadSafeCounter9IncrementEv.exit3:    ; preds = %_ZN4absl17ThreadSafeCounter9IncrementEv.exit
  ret void
}